target datalayout = "e-m:e-p270:32:32-p271:32:32-p272:64:64-i64:64-i128:128-f80:128-n8:16:32:64-S128"
target triple = "x86_64-pc-linux-gnu"

@hf_per_GeneralString_length = internal global i32 0, align 4

; Function Attrs: null_pointer_is_valid sspstrong uwtable
define i32 @dissect_per_GeneralString(ptr noundef %0, i32 noundef %1, ptr noundef %2, ptr noundef %3, i32 noundef %4) #0 {
  %6 = alloca ptr, align 8
  %7 = alloca i32, align 4
  %8 = alloca ptr, align 8
  %9 = alloca ptr, align 8
  %10 = alloca i32, align 4
  %11 = alloca i32, align 4
  store ptr %0, ptr %6, align 8
  store i32 %1, ptr %7, align 4
  store ptr %2, ptr %8, align 8
  store ptr %3, ptr %9, align 8
  store i32 %4, ptr %10, align 4
  call void @llvm.lifetime.start.p0(i64 4, ptr %11) #11
  %12 = load ptr, ptr %6, align 8
  %13 = load i32, ptr %7, align 4
  %14 = load ptr, ptr %8, align 8
  %15 = load ptr, ptr %9, align 8
  %16 = load i32, ptr @hf_per_GeneralString_length, align 4
  %17 = call i32 @dissect_per_length_determinant(ptr noundef %12, i32 noundef %13, ptr noundef %14, ptr noundef %15, i32 noundef %16, ptr noundef %11, ptr noundef null)
  store i32 %17, ptr %7, align 4
  %18 = load ptr, ptr %9, align 8
  %19 = load i32, ptr %10, align 4
  %20 = load ptr, ptr %6, align 8
  %21 = load i32, ptr %7, align 4
  %22 = lshr i32 %21, 3
  %23 = load i32, ptr %11, align 4
  %24 = call ptr @proto_tree_add_item(ptr noundef %18, i32 noundef %19, ptr noundef %20, i32 noundef %22, i32 noundef %23, i32 noundef 0)
  %25 = load i32, ptr %11, align 4
  %26 = mul i32 %25, 8
  %27 = load i32, ptr %7, align 4
  %28 = add i32 %27, %26
  store i32 %28, ptr %7, align 4
  %29 = load i32, ptr %7, align 4
  call void @llvm.lifetime.end.p0(i64 4, ptr %11) #11
  ret i32 %29
}