; Function Attrs: null_pointer_is_valid sspstrong uwtable
define i32 @dissect_per_GeneralString(ptr noundef %0, i32 noundef %1, ptr noundef captures(none) %2, ptr noundef %3, i32 noundef %4) local_unnamed_addr #0 {
  %6 = alloca i32, align 4
  call void @llvm.lifetime.start.p0(i64 4, ptr nonnull %6) #13
  %7 = load i32, ptr @hf_per_GeneralString_length, align 4
  %8 = call i32 @dissect_per_length_determinant(ptr noundef %0, i32 noundef %1, ptr noundef %2, ptr noundef %3, i32 noundef %7, ptr noundef nonnull %6, ptr noundef null)
  %9 = lshr i32 %8, 3
  %10 = load i32, ptr %6, align 4
  %11 = call ptr @proto_tree_add_item(ptr noundef %3, i32 noundef %4, ptr noundef %0, i32 noundef %9, i32 noundef %10, i32 noundef 0)
  %12 = load i32, ptr %6, align 4
  %13 = shl i32 %12, 3
  %14 = add i32 %13, %8
  call void @llvm.lifetime.end.p0(i64 4, ptr nonnull %6) #13
  ret i32 %14
}